target datalayout = "e-m:e-p270:32:32-p271:32:32-p272:64:64-i64:64-i128:128-f80:128-n8:16:32:64-S128"
target triple = "x86_64-pc-linux-gnu"

; Function Attrs: mustprogress uwtable
define hidden void @_ZN6google8protobuf22ServiceDescriptorProto8CopyFromERKS1_(ptr noundef nonnull align 8 dereferenceable(64) %0, ptr noundef nonnull align 8 dereferenceable(64) %1) #4 align 2 {
  %3 = alloca ptr, align 8
  %4 = alloca ptr, align 8
  store ptr %0, ptr %3, align 8, !tbaa !157
  store ptr %1, ptr %4, align 8, !tbaa !157
  %5 = load ptr, ptr %3, align 8
  %6 = load ptr, ptr %4, align 8, !tbaa !157
  %7 = icmp eq ptr %6, %5
  br i1 %7, label %8, label %9

8:                                                ; preds = %2
  br label %11

9:                                                ; preds = %2
  call void @_ZN6google8protobuf22ServiceDescriptorProto5ClearEv(ptr noundef nonnull align 8 dereferenceable(64) %5)
  %10 = load ptr, ptr %4, align 8, !tbaa !157
  call void @_ZN6google8protobuf22ServiceDescriptorProto9MergeFromERKS1_(ptr noundef nonnull align 8 dereferenceable(64) %5, ptr noundef nonnull align 8 dereferenceable(64) %10)
  br label %11

11:                                               ; preds = %9, %8
  ret void
}